; ModuleID = '9/727.c'
source_filename = "9/727.c"
target datalayout = "e-m:e-p270:32:32-p271:32:32-p272:64:64-i64:64-f80:128-n8:16:32:64-S128"
target triple = "x86_64-pc-linux-gnu"

%struct.patient = type { [20 x i8], i32 }

@.str = private unnamed_addr constant [3 x i8] c"%d\00", align 1
@.str.1 = private unnamed_addr constant [6 x i8] c"%s %d\00", align 1
@.str.2 = private unnamed_addr constant [4 x i8] c"%s\0A\00", align 1

; Function Attrs: noinline nounwind uwtable
define dso_local void @main() #0 {
  %1 = alloca i32, align 4
  %2 = alloca i32, align 4
  %3 = alloca [100 x i32], align 16
  %4 = alloca [100 x i32], align 16
  %5 = alloca i32, align 4
  %6 = alloca i32, align 4
  %7 = alloca i32, align 4
  %8 = alloca i32, align 4
  %9 = alloca i32, align 4
  %10 = alloca i32, align 4
  %11 = alloca [100 x %struct.patient], align 16
  store i32 0, i32* %5, align 4
  store i32 0, i32* %9, align 4
  %12 = call i32 (i8*, ...) @__isoc99_scanf(i8* getelementptr inbounds ([3 x i8], [3 x i8]* @.str, i64 0, i64 0), i32* %1)
  store i32 0, i32* %2, align 4
  br label %13

13:                                               ; preds = %28, %0
  %14 = load i32, i32* %2, align 4
  %15 = load i32, i32* %1, align 4
  %16 = icmp slt i32 %14, %15
  br i1 %16, label %17, label %31

17:                                               ; preds = %13
  %18 = load i32, i32* %2, align 4
  %19 = sext i32 %18 to i64
  %20 = getelementptr inbounds [100 x %struct.patient], [100 x %struct.patient]* %11, i64 0, i64 %19
  %21 = getelementptr inbounds %struct.patient, %struct.patient* %20, i32 0, i32 0
  %22 = getelementptr inbounds [20 x i8], [20 x i8]* %21, i64 0, i64 0
  %23 = load i32, i32* %2, align 4
  %24 = sext i32 %23 to i64
  %25 = getelementptr inbounds [100 x %struct.patient], [100 x %struct.patient]* %11, i64 0, i64 %24
  %26 = getelementptr inbounds %struct.patient, %struct.patient* %25, i32 0, i32 1
  %27 = call i32 (i8*, ...) @__isoc99_scanf(i8* getelementptr inbounds ([6 x i8], [6 x i8]* @.str.1, i64 0, i64 0), i8* %22, i32* %26)
  br label %28

28:                                               ; preds = %17
  %29 = load i32, i32* %2, align 4
  %30 = add nsw i32 %29, 1
  store i32 %30, i32* %2, align 4
  br label %13

31:                                               ; preds = %13
  store i32 0, i32* %2, align 4
  br label %32

32:                                               ; preds = %56, %31
  %33 = load i32, i32* %2, align 4
  %34 = load i32, i32* %1, align 4
  %35 = icmp slt i32 %33, %34
  br i1 %35, label %36, label %59

36:                                               ; preds = %32
  %37 = load i32, i32* %2, align 4
  %38 = sext i32 %37 to i64
  %39 = getelementptr inbounds [100 x %struct.patient], [100 x %struct.patient]* %11, i64 0, i64 %38
  %40 = getelementptr inbounds %struct.patient, %struct.patient* %39, i32 0, i32 1
  %41 = load i32, i32* %40, align 4
  %42 = icmp sge i32 %41, 60
  br i1 %42, label %43, label %49

43:                                               ; preds = %36
  %44 = load i32, i32* %2, align 4
  %45 = load i32, i32* %5, align 4
  %46 = add nsw i32 %45, 1
  store i32 %46, i32* %5, align 4
  %47 = sext i32 %45 to i64
  %48 = getelementptr inbounds [100 x i32], [100 x i32]* %3, i64 0, i64 %47
  store i32 %44, i32* %48, align 4
  br label %55

49:                                               ; preds = %36
  %50 = load i32, i32* %2, align 4
  %51 = load i32, i32* %9, align 4
  %52 = add nsw i32 %51, 1
  store i32 %52, i32* %9, align 4
  %53 = sext i32 %51 to i64
  %54 = getelementptr inbounds [100 x i32], [100 x i32]* %4, i64 0, i64 %53
  store i32 %50, i32* %54, align 4
  br label %55

55:                                               ; preds = %49, %43
  br label %56

56:                                               ; preds = %55
  %57 = load i32, i32* %2, align 4
  %58 = add nsw i32 %57, 1
  store i32 %58, i32* %2, align 4
  br label %32

59:                                               ; preds = %32
  store i32 0, i32* %2, align 4
  br label %60

60:                                               ; preds = %122, %59
  %61 = load i32, i32* %2, align 4
  %62 = load i32, i32* %5, align 4
  %63 = icmp slt i32 %61, %62
  br i1 %63, label %64, label %125

64:                                               ; preds = %60
  %65 = load i32, i32* %2, align 4
  store i32 %65, i32* %10, align 4
  %66 = load i32, i32* %2, align 4
  store i32 %66, i32* %6, align 4
  br label %67

67:                                               ; preds = %92, %64
  %68 = load i32, i32* %6, align 4
  %69 = load i32, i32* %5, align 4
  %70 = icmp slt i32 %68, %69
  br i1 %70, label %71, label %95

71:                                               ; preds = %67
  %72 = load i32, i32* %6, align 4
  %73 = sext i32 %72 to i64
  %74 = getelementptr inbounds [100 x i32], [100 x i32]* %3, i64 0, i64 %73
  %75 = load i32, i32* %74, align 4
  %76 = sext i32 %75 to i64
  %77 = getelementptr inbounds [100 x %struct.patient], [100 x %struct.patient]* %11, i64 0, i64 %76
  %78 = getelementptr inbounds %struct.patient, %struct.patient* %77, i32 0, i32 1
  %79 = load i32, i32* %78, align 4
  %80 = load i32, i32* %10, align 4
  %81 = sext i32 %80 to i64
  %82 = getelementptr inbounds [100 x i32], [100 x i32]* %3, i64 0, i64 %81
  %83 = load i32, i32* %82, align 4
  %84 = sext i32 %83 to i64
  %85 = getelementptr inbounds [100 x %struct.patient], [100 x %struct.patient]* %11, i64 0, i64 %84
  %86 = getelementptr inbounds %struct.patient, %struct.patient* %85, i32 0, i32 1
  %87 = load i32, i32* %86, align 4
  %88 = icmp sgt i32 %79, %87
  br i1 %88, label %89, label %91

89:                                               ; preds = %71
  %90 = load i32, i32* %6, align 4
  store i32 %90, i32* %10, align 4
  br label %91

91:                                               ; preds = %89, %71
  br label %92

92:                                               ; preds = %91
  %93 = load i32, i32* %6, align 4
  %94 = add nsw i32 %93, 1
  store i32 %94, i32* %6, align 4
  br label %67

95:                                               ; preds = %67
  %96 = load i32, i32* %10, align 4
  %97 = sext i32 %96 to i64
  %98 = getelementptr inbounds [100 x i32], [100 x i32]* %3, i64 0, i64 %97
  %99 = load i32, i32* %98, align 4
  store i32 %99, i32* %7, align 4
  %100 = load i32, i32* %10, align 4
  store i32 %100, i32* %6, align 4
  br label %101

101:                                              ; preds = %114, %95
  %102 = load i32, i32* %6, align 4
  %103 = load i32, i32* %2, align 4
  %104 = icmp sgt i32 %102, %103
  br i1 %104, label %105, label %117

105:                                              ; preds = %101
  %106 = load i32, i32* %6, align 4
  %107 = sub nsw i32 %106, 1
  %108 = sext i32 %107 to i64
  %109 = getelementptr inbounds [100 x i32], [100 x i32]* %3, i64 0, i64 %108
  %110 = load i32, i32* %109, align 4
  %111 = load i32, i32* %6, align 4
  %112 = sext i32 %111 to i64
  %113 = getelementptr inbounds [100 x i32], [100 x i32]* %3, i64 0, i64 %112
  store i32 %110, i32* %113, align 4
  br label %114

114:                                              ; preds = %105
  %115 = load i32, i32* %6, align 4
  %116 = add nsw i32 %115, -1
  store i32 %116, i32* %6, align 4
  br label %101

117:                                              ; preds = %101
  %118 = load i32, i32* %7, align 4
  %119 = load i32, i32* %2, align 4
  %120 = sext i32 %119 to i64
  %121 = getelementptr inbounds [100 x i32], [100 x i32]* %3, i64 0, i64 %120
  store i32 %118, i32* %121, align 4
  br label %122

122:                                              ; preds = %117
  %123 = load i32, i32* %2, align 4
  %124 = add nsw i32 %123, 1
  store i32 %124, i32* %2, align 4
  br label %60

125:                                              ; preds = %60
  store i32 0, i32* %2, align 4
  br label %126

126:                                              ; preds = %140, %125
  %127 = load i32, i32* %2, align 4
  %128 = load i32, i32* %5, align 4
  %129 = icmp slt i32 %127, %128
  br i1 %129, label %130, label %143

130:                                              ; preds = %126
  %131 = load i32, i32* %2, align 4
  %132 = sext i32 %131 to i64
  %133 = getelementptr inbounds [100 x i32], [100 x i32]* %3, i64 0, i64 %132
  %134 = load i32, i32* %133, align 4
  %135 = sext i32 %134 to i64
  %136 = getelementptr inbounds [100 x %struct.patient], [100 x %struct.patient]* %11, i64 0, i64 %135
  %137 = getelementptr inbounds %struct.patient, %struct.patient* %136, i32 0, i32 0
  %138 = getelementptr inbounds [20 x i8], [20 x i8]* %137, i64 0, i64 0
  %139 = call i32 (i8*, ...) @printf(i8* getelementptr inbounds ([4 x i8], [4 x i8]* @.str.2, i64 0, i64 0), i8* %138)
  br label %140

140:                                              ; preds = %130
  %141 = load i32, i32* %2, align 4
  %142 = add nsw i32 %141, 1
  store i32 %142, i32* %2, align 4
  br label %126

143:                                              ; preds = %126
  store i32 0, i32* %2, align 4
  br label %144

144:                                              ; preds = %158, %143
  %145 = load i32, i32* %2, align 4
  %146 = load i32, i32* %9, align 4
  %147 = icmp slt i32 %145, %146
  br i1 %147, label %148, label %161

148:                                              ; preds = %144
  %149 = load i32, i32* %2, align 4
  %150 = sext i32 %149 to i64
  %151 = getelementptr inbounds [100 x i32], [100 x i32]* %4, i64 0, i64 %150
  %152 = load i32, i32* %151, align 4
  %153 = sext i32 %152 to i64
  %154 = getelementptr inbounds [100 x %struct.patient], [100 x %struct.patient]* %11, i64 0, i64 %153
  %155 = getelementptr inbounds %struct.patient, %struct.patient* %154, i32 0, i32 0
  %156 = getelementptr inbounds [20 x i8], [20 x i8]* %155, i64 0, i64 0
  %157 = call i32 (i8*, ...) @printf(i8* getelementptr inbounds ([4 x i8], [4 x i8]* @.str.2, i64 0, i64 0), i8* %156)
  br label %158

158:                                              ; preds = %148
  %159 = load i32, i32* %2, align 4
  %160 = add nsw i32 %159, 1
  store i32 %160, i32* %2, align 4
  br label %144

161:                                              ; preds = %144
  ret void
}

declare dso_local i32 @__isoc99_scanf(i8*, ...) #1

declare dso_local i32 @printf(i8*, ...) #1


!llvm.module.flags = !{!0}
!llvm.ident = !{!1}

!0 = !{i32 1, !"wchar_size", i32 4}
!1 = !{!"clang version 10.0.0-4ubuntu1 "}
